; Function Attrs: mustprogress nofree norecurse nosync nounwind willreturn memory(argmem: read) uwtable
define hidden noundef range(i32 54528, 0) i32 @_ZN9Assembler16get_prefixq_rex2E7Address8Registerb(ptr nocapture noundef nonnull readnone align 8 dereferenceable(40) %0, ptr nocapture noundef readonly %1, i32 %2, i1 noundef zeroext %3) local_unnamed_addr #12 align 2 {
  %.sroa.0.0.copyload.i = load i32, ptr %1, align 8
  %5 = getelementptr inbounds i8, ptr %1, i64 4
  %.sroa.0.0.copyload.i7 = load i32, ptr %5, align 4
  %6 = sext i32 %.sroa.0.0.copyload.i7 to i64
  %7 = getelementptr inbounds %"class.Register::RegisterImpl", ptr getelementptr inbounds (i8, ptr @all_RegisterImpls, i64 1), i64 %6
  %8 = ptrtoint ptr %7 to i64
  %9 = trunc i64 %8 to i32
  %10 = sub i32 %9, ptrtoint (ptr getelementptr inbounds (i8, ptr @all_RegisterImpls, i64 1) to i32)
  %11 = icmp ult i32 %10, 32
  br i1 %11, label %12, label %_ZN9Assembler21get_index_prefix_bitsE8Register.exit

12:                                               ; preds = %4
  %13 = shl nuw nsw i32 %10, 1
  %spec.select.i.i = and i32 %13, 32
  %14 = lshr i32 %10, 2
  %15 = and i32 %14, 2
  %.1.i.i8 = or disjoint i32 %spec.select.i.i, %15
  br label %_ZN9Assembler21get_index_prefix_bitsE8Register.exit

_ZN9Assembler21get_index_prefix_bitsE8Register.exit: ; preds = %4, %12
  %16 = phi i32 [ %.1.i.i8, %12 ], [ 0, %4 ]
  %17 = sext i32 %.sroa.0.0.copyload.i to i64
  %18 = getelementptr inbounds %"class.Register::RegisterImpl", ptr getelementptr inbounds (i8, ptr @all_RegisterImpls, i64 1), i64 %17
  %19 = ptrtoint ptr %18 to i64
  %20 = trunc i64 %19 to i32
  %21 = sub i32 %20, ptrtoint (ptr getelementptr inbounds (i8, ptr @all_RegisterImpls, i64 1) to i32)
  %22 = icmp ult i32 %21, 32
  %23 = lshr i32 %21, 3
  %24 = and i32 %23, 1
  %25 = and i32 %21, 16
  %.1.i.i = or disjoint i32 %24, %25
  %26 = select i1 %22, i32 %.1.i.i, i32 0
  %27 = sext i32 %2 to i64
  %28 = getelementptr inbounds %"class.Register::RegisterImpl", ptr getelementptr inbounds (i8, ptr @all_RegisterImpls, i64 1), i64 %27
  %29 = ptrtoint ptr %28 to i64
  %30 = trunc i64 %29 to i32
  %31 = sub i32 %30, ptrtoint (ptr getelementptr inbounds (i8, ptr @all_RegisterImpls, i64 1) to i32)
  %32 = shl i32 %31, 2
  %spec.select.i = and i32 %32, 64
  %33 = lshr i32 %31, 1
  %34 = and i32 %33, 4
  %35 = select i1 %3, i32 54664, i32 54536
  %36 = or disjoint i32 %35, %34
  %.1.i = or disjoint i32 %36, %spec.select.i
  %37 = or disjoint i32 %.1.i, %26
  %38 = or i32 %37, %16
  ret i32 %38
}